; Function Attrs: mustprogress uwtable
define noalias noundef nonnull ptr @_ZN4lean25mk_ascii_string_uncheckedERKNSt7__cxx1112basic_stringIcSt11char_traitsIcESaIcEEE(ptr noundef nonnull readonly align 8 captures(none) dereferenceable(32) %0) local_unnamed_addr #0 {
  %2 = load ptr, ptr %0, align 8, !tbaa !155
  %3 = getelementptr inbounds nuw i8, ptr %0, i64 8
  %4 = load i64, ptr %3, align 8, !tbaa !55
  %5 = add i64 %4, 33
  %6 = tail call noalias ptr @mi_malloc(i64 noundef %5) #40
  %7 = icmp eq ptr %6, null
  br i1 %7, label %8, label %lean_mk_string_unchecked.exit

8:                                                ; preds = %1
  tail call void @lean_internal_panic_out_of_memory() #43
  unreachable

lean_mk_string_unchecked.exit:                    ; preds = %1
  %9 = add i64 %4, 1
  %10 = getelementptr inbounds nuw i8, ptr %6, i64 4
  store i32 1, ptr %6, align 4, !tbaa !23
  store i32 -117440512, ptr %10, align 4
  %11 = getelementptr inbounds nuw i8, ptr %6, i64 8
  store i64 %9, ptr %11, align 8, !tbaa !30
  %12 = getelementptr inbounds nuw i8, ptr %6, i64 16
  store i64 %9, ptr %12, align 8, !tbaa !30
  %13 = getelementptr inbounds nuw i8, ptr %6, i64 24
  store i64 %4, ptr %13, align 8, !tbaa !30
  %14 = getelementptr inbounds nuw i8, ptr %6, i64 32
  tail call void @llvm.memcpy.p0.p0.i64(ptr nonnull align 1 %14, ptr readonly align 1 %2, i64 %4, i1 false)
  %15 = getelementptr inbounds nuw i8, ptr %14, i64 %4
  store i8 0, ptr %15, align 1, !tbaa !57
  ret ptr %6
}